(lp0
(S'deps'
p1
ccopy_reg
_reconstructor
p2
(cino.utils
SpaceList
p3
c__builtin__
list
p4
(lp5
S'.build/pro328/src/dependencies.d'
p6
aS'.build/pro328/arduino/dependencies.d'
p7
aS'.build/pro328/XBee/dependencies.d'
p8
atp9
Rp10
tp11
a(S'stty'
p12
S'/bin/stty'
p13
tp14
a(S'version.txt'
p15
S'/Applications/Arduino.app/Contents/Resources/Java/lib/version.txt'
p16
tp17
a(S'used_libs'
p18
(lp19
S'lib/XBee'
p20
aS'/Applications/Arduino.app/Contents/Resources/Java/hardware/arduino/cores/arduino'
p21
atp22
a(S'cc'
p23
S'/Applications/Arduino.app/Contents/Resources/Java/hardware/tools/avr/bin/avr-gcc'
p24
tp25
a(S'arduino_libraries_dir'
p26
S'/Applications/Arduino.app/Contents/Resources/Java/libraries'
p27
tp28
a(S'arduino_core_dir'
p29
g21
tp30
a(S'boards.txt'
p31
S'/Applications/Arduino.app/Contents/Resources/Java/hardware/arduino/boards.txt'
p32
tp33
a(S'cxxflags'
p34
g2
(g3
g4
(lp35
S'-fno-exceptions'
p36
atp37
Rp38
tp39
a(S'arduino_variants_dir'
p40
S'/Applications/Arduino.app/Contents/Resources/Java/hardware/arduino/variants'
p41
tp42
a(S'avrdude'
p43
S'/Applications/Arduino.app/Contents/Resources/Java/hardware/tools/avr/bin/avrdude'
p44
tp45
a(S'avrdude.conf'
p46
S'/Applications/Arduino.app/Contents/Resources/Java/hardware/tools/avr/etc/avrdude.conf'
p47
tp48
a(S'names'
p49
(dp50
S'cpp'
p51
S'%s.cpp'
p52
sS'obj'
p53
S'%s.o'
p54
sS'lib'
p55
S'lib%s.a'
p56
sS'deps'
p57
S'%s.d'
p58
stp59
a(S'cflags'
p60
g2
(g3
g4
(lp61
S'-mmcu=atmega328p'
p62
aS'-ffunction-sections'
p63
aS'-fdata-sections'
p64
aS'-g'
p65
aS'-Os'
p66
aS'-w'
p67
aS'-DF_CPU=8000000L'
p68
aS'-DARDUINO=100'
p69
aS'-I/Applications/Arduino.app/Contents/Resources/Java/hardware/arduino/cores/arduino'
p70
aS'-I/Applications/Arduino.app/Contents/Resources/Java/hardware/arduino/variants/standard'
p71
aS'-Ilib/XBee'
p72
aS'-I/Applications/Arduino.app/Contents/Resources/Java/hardware/arduino/cores/arduino'
p73
atp74
Rp75
tp76
a(S'elfflags'
p77
g2
(g3
g4
(lp78
g66
aS'-Wl,--gc-sections'
p79
ag62
atp80
Rp81
tp82
a(S'arduino_lib_version'
p83
g2
(cino.environment
Version
p84
c__builtin__
tuple
p85
(I1
I0
tp86
tp87
Rp88
tp89
a(S'objcopy'
p90
S'/Applications/Arduino.app/Contents/Resources/Java/hardware/tools/avr/bin/avr-objcopy'
p91
tp92
a(S'ar'
p93
S'/Applications/Arduino.app/Contents/Resources/Java/hardware/tools/avr/bin/avr-ar'
p94
tp95
a(S'board_models'
p96
cino.environment
BoardModels
p97
((lp98
(lp99
S'uno'
p100
a(dp101
S'bootloader'
p102
(dp103
S'extended_fuses'
p104
S'0x05'
p105
sS'high_fuses'
p106
S'0xde'
p107
sS'low_fuses'
p108
S'0xff'
p109
sS'lock_bits'
p110
S'0x0F'
p111
sS'file'
p112
S'optiboot_atmega328.hex'
p113
sS'path'
p114
S'optiboot'
p115
sS'unlock_bits'
p116
S'0x3F'
p117
ssS'upload'
p118
(dp119
S'speed'
p120
S'115200'
p121
sS'maximum_size'
p122
S'32256'
p123
sS'protocol'
p124
S'arduino'
p125
ssS'name'
p126
S'Arduino Uno'
p127
sS'build'
p128
(dp129
S'core'
p130
S'arduino'
p131
sS'mcu'
p132
S'atmega328p'
p133
sS'f_cpu'
p134
S'16000000L'
p135
sS'variant'
p136
S'standard'
p137
ssaa(lp138
S'atmega328'
p139
a(dp140
S'bootloader'
p141
(dp142
S'extended_fuses'
p143
S'0x05'
p144
sS'high_fuses'
p145
S'0xDA'
p146
sS'low_fuses'
p147
S'0xFF'
p148
sS'lock_bits'
p149
S'0x0F'
p150
sS'file'
p151
S'ATmegaBOOT_168_atmega328.hex'
p152
sS'path'
p153
S'atmega'
p154
sS'unlock_bits'
p155
S'0x3F'
p156
ssS'upload'
p157
(dp158
S'speed'
p159
S'57600'
p160
sS'maximum_size'
p161
S'30720'
p162
sS'protocol'
p163
S'arduino'
p164
ssS'name'
p165
S'Arduino Duemilanove w/ ATmega328'
p166
sS'build'
p167
(dp168
S'core'
p169
S'arduino'
p170
sS'mcu'
p171
S'atmega328p'
p172
sS'f_cpu'
p173
S'16000000L'
p174
sS'variant'
p175
S'standard'
p176
ssaa(lp177
S'diecimila'
p178
a(dp179
S'bootloader'
p180
(dp181
S'extended_fuses'
p182
S'0x00'
p183
sS'high_fuses'
p184
S'0xdd'
p185
sS'low_fuses'
p186
S'0xff'
p187
sS'lock_bits'
p188
S'0x0F'
p189
sS'file'
p190
S'ATmegaBOOT_168_diecimila.hex'
p191
sS'path'
p192
S'atmega'
p193
sS'unlock_bits'
p194
S'0x3F'
p195
ssS'upload'
p196
(dp197
S'speed'
p198
S'19200'
p199
sS'maximum_size'
p200
S'14336'
p201
sS'protocol'
p202
S'arduino'
p203
ssS'name'
p204
S'Arduino Diecimila or Duemilanove w/ ATmega168'
p205
sS'build'
p206
(dp207
S'core'
p208
S'arduino'
p209
sS'mcu'
p210
S'atmega168'
p211
sS'f_cpu'
p212
S'16000000L'
p213
sS'variant'
p214
S'standard'
p215
ssaa(lp216
S'nano328'
p217
a(dp218
S'bootloader'
p219
(dp220
S'extended_fuses'
p221
S'0x05'
p222
sS'high_fuses'
p223
S'0xDA'
p224
sS'low_fuses'
p225
S'0xFF'
p226
sS'lock_bits'
p227
S'0x0F'
p228
sS'file'
p229
S'ATmegaBOOT_168_atmega328.hex'
p230
sS'path'
p231
S'atmega'
p232
sS'unlock_bits'
p233
S'0x3F'
p234
ssS'upload'
p235
(dp236
S'speed'
p237
S'57600'
p238
sS'maximum_size'
p239
S'30720'
p240
sS'protocol'
p241
S'arduino'
p242
ssS'name'
p243
S'Arduino Nano w/ ATmega328'
p244
sS'build'
p245
(dp246
S'core'
p247
S'arduino'
p248
sS'mcu'
p249
S'atmega328p'
p250
sS'f_cpu'
p251
S'16000000L'
p252
sS'variant'
p253
S'eightanaloginputs'
p254
ssaa(lp255
S'nano'
p256
a(dp257
S'bootloader'
p258
(dp259
S'extended_fuses'
p260
S'0x00'
p261
sS'high_fuses'
p262
S'0xdd'
p263
sS'low_fuses'
p264
S'0xff'
p265
sS'lock_bits'
p266
S'0x0F'
p267
sS'file'
p268
S'ATmegaBOOT_168_diecimila.hex'
p269
sS'path'
p270
S'atmega'
p271
sS'unlock_bits'
p272
S'0x3F'
p273
ssS'upload'
p274
(dp275
S'speed'
p276
S'19200'
p277
sS'maximum_size'
p278
S'14336'
p279
sS'protocol'
p280
S'arduino'
p281
ssS'name'
p282
S'Arduino Nano w/ ATmega168'
p283
sS'build'
p284
(dp285
S'core'
p286
S'arduino'
p287
sS'mcu'
p288
S'atmega168'
p289
sS'f_cpu'
p290
S'16000000L'
p291
sS'variant'
p292
S'eightanaloginputs'
p293
ssaa(lp294
S'mega2560'
p295
a(dp296
S'bootloader'
p297
(dp298
S'extended_fuses'
p299
S'0xFD'
p300
sS'high_fuses'
p301
S'0xD8'
p302
sS'low_fuses'
p303
S'0xFF'
p304
sS'lock_bits'
p305
S'0x0F'
p306
sS'file'
p307
S'stk500boot_v2_mega2560.hex'
p308
sS'path'
p309
S'stk500v2'
p310
sS'unlock_bits'
p311
S'0x3F'
p312
ssS'upload'
p313
(dp314
S'speed'
p315
S'115200'
p316
sS'maximum_size'
p317
S'258048'
p318
sS'protocol'
p319
S'wiring'
p320
ssS'name'
p321
S'Arduino Mega 2560 or Mega ADK'
p322
sS'build'
p323
(dp324
S'core'
p325
S'arduino'
p326
sS'mcu'
p327
S'atmega2560'
p328
sS'f_cpu'
p329
S'16000000L'
p330
sS'variant'
p331
S'mega'
p332
ssaa(lp333
S'mega'
p334
a(dp335
S'bootloader'
p336
(dp337
S'extended_fuses'
p338
S'0xF5'
p339
sS'high_fuses'
p340
S'0xDA'
p341
sS'low_fuses'
p342
S'0xFF'
p343
sS'lock_bits'
p344
S'0x0F'
p345
sS'file'
p346
S'ATmegaBOOT_168_atmega1280.hex'
p347
sS'path'
p348
S'atmega'
p349
sS'unlock_bits'
p350
S'0x3F'
p351
ssS'upload'
p352
(dp353
S'speed'
p354
S'57600'
p355
sS'maximum_size'
p356
S'126976'
p357
sS'protocol'
p358
S'arduino'
p359
ssS'name'
p360
S'Arduino Mega (ATmega1280)'
p361
sS'build'
p362
(dp363
S'core'
p364
S'arduino'
p365
sS'mcu'
p366
S'atmega1280'
p367
sS'f_cpu'
p368
S'16000000L'
p369
sS'variant'
p370
S'mega'
p371
ssaa(lp372
S'leonardo'
p373
a(dp374
S'bootloader'
p375
(dp376
S'extended_fuses'
p377
S'0xcb'
p378
sS'high_fuses'
p379
S'0xd8'
p380
sS'low_fuses'
p381
S'0xff'
p382
sS'lock_bits'
p383
S'0x2F'
p384
sS'file'
p385
S'Caterina-Leonardo.hex'
p386
sS'path'
p387
S'caterina'
p388
sS'unlock_bits'
p389
S'0x3F'
p390
ssS'upload'
p391
(dp392
S'speed'
p393
S'57600'
p394
sS'maximum_size'
p395
S'28672'
p396
sS'protocol'
p397
S'avr109'
p398
sS'disable_flushing'
p399
S'true'
p400
ssS'name'
p401
S'Arduino Leonardo'
p402
sS'build'
p403
(dp404
S'core'
p405
S'arduino'
p406
sS'f_cpu'
p407
S'16000000L'
p408
sS'vid'
p409
S'0x2341'
p410
sS'pid'
p411
S'0x8036'
p412
sS'variant'
p413
S'leonardo'
p414
sS'mcu'
p415
S'atmega32u4'
p416
ssaa(lp417
S'esplora'
p418
a(dp419
S'bootloader'
p420
(dp421
S'extended_fuses'
p422
S'0xcb'
p423
sS'high_fuses'
p424
S'0xd8'
p425
sS'low_fuses'
p426
S'0xff'
p427
sS'lock_bits'
p428
S'0x2F'
p429
sS'file'
p430
S'Caterina-Esplora.hex'
p431
sS'path'
p432
S'caterina'
p433
sS'unlock_bits'
p434
S'0x3F'
p435
ssS'upload'
p436
(dp437
S'speed'
p438
S'57600'
p439
sS'maximum_size'
p440
S'28672'
p441
sS'protocol'
p442
S'avr109'
p443
sS'disable_flushing'
p444
S'true'
p445
ssS'name'
p446
S'Arduino Esplora'
p447
sS'build'
p448
(dp449
S'core'
p450
S'arduino'
p451
sS'f_cpu'
p452
S'16000000L'
p453
sS'vid'
p454
S'0x2341'
p455
sS'pid'
p456
S'0x803C'
p457
sS'variant'
p458
S'leonardo'
p459
sS'mcu'
p460
S'atmega32u4'
p461
ssaa(lp462
S'micro'
p463
a(dp464
S'bootloader'
p465
(dp466
S'extended_fuses'
p467
S'0xcb'
p468
sS'high_fuses'
p469
S'0xd8'
p470
sS'low_fuses'
p471
S'0xff'
p472
sS'lock_bits'
p473
S'0x2F'
p474
sS'file'
p475
S'Caterina-Micro.hex'
p476
sS'path'
p477
S'caterina'
p478
sS'unlock_bits'
p479
S'0x3F'
p480
ssS'upload'
p481
(dp482
S'speed'
p483
S'57600'
p484
sS'maximum_size'
p485
S'28672'
p486
sS'protocol'
p487
S'avr109'
p488
sS'disable_flushing'
p489
S'true'
p490
ssS'name'
p491
S'Arduino Micro'
p492
sS'build'
p493
(dp494
S'core'
p495
S'arduino'
p496
sS'f_cpu'
p497
S'16000000L'
p498
sS'vid'
p499
S'0x2341'
p500
sS'pid'
p501
S'0x8037'
p502
sS'variant'
p503
S'micro'
p504
sS'mcu'
p505
S'atmega32u4'
p506
ssaa(lp507
S'mini328'
p508
a(dp509
S'bootloader'
p510
(dp511
S'extended_fuses'
p512
S'0x05'
p513
sS'high_fuses'
p514
S'0xd8'
p515
sS'low_fuses'
p516
S'0xff'
p517
sS'lock_bits'
p518
S'0x0F'
p519
sS'file'
p520
S'optiboot_atmega328-Mini.hex'
p521
sS'path'
p522
S'optiboot'
p523
sS'unlock_bits'
p524
S'0x3F'
p525
ssS'upload'
p526
(dp527
S'speed'
p528
S'115200'
p529
sS'maximum_size'
p530
S'28672'
p531
sS'protocol'
p532
S'arduino'
p533
ssS'name'
p534
S'Arduino Mini w/ ATmega328'
p535
sS'build'
p536
(dp537
S'core'
p538
S'arduino'
p539
sS'mcu'
p540
S'atmega328p'
p541
sS'f_cpu'
p542
S'16000000L'
p543
sS'variant'
p544
S'eightanaloginputs'
p545
ssaa(lp546
S'mini'
p547
a(dp548
S'bootloader'
p549
(dp550
S'extended_fuses'
p551
S'0x00'
p552
sS'high_fuses'
p553
S'0xdd'
p554
sS'low_fuses'
p555
S'0xff'
p556
sS'lock_bits'
p557
S'0x0F'
p558
sS'file'
p559
S'ATmegaBOOT_168_ng.hex'
p560
sS'path'
p561
S'atmega'
p562
sS'unlock_bits'
p563
S'0x3F'
p564
ssS'upload'
p565
(dp566
S'speed'
p567
S'19200'
p568
sS'maximum_size'
p569
S'14336'
p570
sS'protocol'
p571
S'arduino'
p572
ssS'name'
p573
S'Arduino Mini w/ ATmega168'
p574
sS'build'
p575
(dp576
S'core'
p577
S'arduino'
p578
sS'mcu'
p579
S'atmega168'
p580
sS'f_cpu'
p581
S'16000000L'
p582
sS'variant'
p583
S'eightanaloginputs'
p584
ssaa(lp585
S'ethernet'
p586
a(dp587
S'bootloader'
p588
(dp589
S'extended_fuses'
p590
S'0x05'
p591
sS'high_fuses'
p592
S'0xde'
p593
sS'low_fuses'
p594
S'0xff'
p595
sS'lock_bits'
p596
S'0x0F'
p597
sS'file'
p598
S'optiboot_atmega328.hex'
p599
sS'path'
p600
S'optiboot'
p601
sS'unlock_bits'
p602
S'0x3F'
p603
ssS'upload'
p604
(dp605
S'speed'
p606
S'115200'
p607
sS'maximum_size'
p608
S'32256'
p609
sS'protocol'
p610
S'arduino'
p611
ssS'name'
p612
S'Arduino Ethernet'
p613
sS'build'
p614
(dp615
S'f_cpu'
p616
S'16000000L'
p617
sS'mcu'
p618
S'atmega328p'
p619
sS'variant'
p620
S'standard'
p621
sS'core'
p622
S'arduino'
p623
ssaa(lp624
S'fio'
p625
a(dp626
S'bootloader'
p627
(dp628
S'extended_fuses'
p629
S'0x05'
p630
sS'high_fuses'
p631
S'0xDA'
p632
sS'low_fuses'
p633
S'0xFF'
p634
sS'lock_bits'
p635
S'0x0F'
p636
sS'file'
p637
S'ATmegaBOOT_168_atmega328_pro_8MHz.hex'
p638
sS'path'
p639
S'arduino:atmega'
p640
sS'unlock_bits'
p641
S'0x3F'
p642
ssS'upload'
p643
(dp644
S'speed'
p645
S'57600'
p646
sS'maximum_size'
p647
S'30720'
p648
sS'protocol'
p649
S'arduino'
p650
ssS'name'
p651
S'Arduino Fio'
p652
sS'build'
p653
(dp654
S'core'
p655
S'arduino'
p656
sS'mcu'
p657
S'atmega328p'
p658
sS'f_cpu'
p659
S'8000000L'
p660
sS'variant'
p661
S'eightanaloginputs'
p662
ssaa(lp663
S'bt328'
p664
a(dp665
S'bootloader'
p666
(dp667
S'extended_fuses'
p668
S'0x05'
p669
sS'high_fuses'
p670
S'0xd8'
p671
sS'low_fuses'
p672
S'0xff'
p673
sS'lock_bits'
p674
S'0x0F'
p675
sS'file'
p676
S'ATmegaBOOT_168_atmega328_bt.hex'
p677
sS'path'
p678
S'bt'
p679
sS'unlock_bits'
p680
S'0x3F'
p681
ssS'upload'
p682
(dp683
S'speed'
p684
S'19200'
p685
sS'maximum_size'
p686
S'28672'
p687
sS'protocol'
p688
S'arduino'
p689
sS'disable_flushing'
p690
S'true'
p691
ssS'name'
p692
S'Arduino BT w/ ATmega328'
p693
sS'build'
p694
(dp695
S'core'
p696
S'arduino'
p697
sS'mcu'
p698
S'atmega328p'
p699
sS'f_cpu'
p700
S'16000000L'
p701
sS'variant'
p702
S'eightanaloginputs'
p703
ssaa(lp704
S'bt'
p705
a(dp706
S'bootloader'
p707
(dp708
S'extended_fuses'
p709
S'0x00'
p710
sS'high_fuses'
p711
S'0xdd'
p712
sS'low_fuses'
p713
S'0xff'
p714
sS'lock_bits'
p715
S'0x0F'
p716
sS'file'
p717
S'ATmegaBOOT_168.hex'
p718
sS'path'
p719
S'bt'
p720
sS'unlock_bits'
p721
S'0x3F'
p722
ssS'upload'
p723
(dp724
S'speed'
p725
S'19200'
p726
sS'maximum_size'
p727
S'14336'
p728
sS'protocol'
p729
S'arduino'
p730
sS'disable_flushing'
p731
S'true'
p732
ssS'name'
p733
S'Arduino BT w/ ATmega168'
p734
sS'build'
p735
(dp736
S'core'
p737
S'arduino'
p738
sS'mcu'
p739
S'atmega168'
p740
sS'f_cpu'
p741
S'16000000L'
p742
sS'variant'
p743
S'eightanaloginputs'
p744
ssaa(lp745
S'LilyPadUSB'
p746
a(dp747
S'bootloader'
p748
(dp749
S'extended_fuses'
p750
S'0xce'
p751
sS'high_fuses'
p752
S'0xd8'
p753
sS'low_fuses'
p754
S'0xff'
p755
sS'lock_bits'
p756
S'0x2F'
p757
sS'file'
p758
S'Caterina-LilyPadUSB.hex'
p759
sS'path'
p760
S'caterina-LilyPadUSB'
p761
sS'unlock_bits'
p762
S'0x3F'
p763
ssS'upload'
p764
(dp765
S'speed'
p766
S'57600'
p767
sS'maximum_size'
p768
S'28672'
p769
sS'protocol'
p770
S'avr109'
p771
sS'disable_flushing'
p772
S'true'
p773
ssS'name'
p774
S'LilyPad Arduino USB'
p775
sS'build'
p776
(dp777
S'core'
p778
S'arduino'
p779
sS'f_cpu'
p780
S'8000000L'
p781
sS'vid'
p782
S'0x1B4F'
p783
sS'pid'
p784
S'0x9208'
p785
sS'variant'
p786
S'leonardo'
p787
sS'mcu'
p788
S'atmega32u4'
p789
ssaa(lp790
S'lilypad328'
p791
a(dp792
S'bootloader'
p793
(dp794
S'extended_fuses'
p795
S'0x05'
p796
sS'high_fuses'
p797
S'0xDA'
p798
sS'low_fuses'
p799
S'0xFF'
p800
sS'lock_bits'
p801
S'0x0F'
p802
sS'file'
p803
S'ATmegaBOOT_168_atmega328_pro_8MHz.hex'
p804
sS'path'
p805
S'atmega'
p806
sS'unlock_bits'
p807
S'0x3F'
p808
ssS'upload'
p809
(dp810
S'speed'
p811
S'57600'
p812
sS'maximum_size'
p813
S'30720'
p814
sS'protocol'
p815
S'arduino'
p816
ssS'name'
p817
S'LilyPad Arduino w/ ATmega328'
p818
sS'build'
p819
(dp820
S'core'
p821
S'arduino'
p822
sS'mcu'
p823
S'atmega328p'
p824
sS'f_cpu'
p825
S'8000000L'
p826
sS'variant'
p827
S'standard'
p828
ssaa(lp829
S'lilypad'
p830
a(dp831
S'bootloader'
p832
(dp833
S'extended_fuses'
p834
S'0x00'
p835
sS'high_fuses'
p836
S'0xdd'
p837
sS'low_fuses'
p838
S'0xe2'
p839
sS'lock_bits'
p840
S'0x0F'
p841
sS'file'
p842
S'LilyPadBOOT_168.hex'
p843
sS'path'
p844
S'lilypad'
p845
sS'unlock_bits'
p846
S'0x3F'
p847
ssS'upload'
p848
(dp849
S'speed'
p850
S'19200'
p851
sS'maximum_size'
p852
S'14336'
p853
sS'protocol'
p854
S'arduino'
p855
ssS'name'
p856
S'LilyPad Arduino w/ ATmega168'
p857
sS'build'
p858
(dp859
S'core'
p860
S'arduino'
p861
sS'mcu'
p862
S'atmega168'
p863
sS'f_cpu'
p864
S'8000000L'
p865
sS'variant'
p866
S'standard'
p867
ssaa(lp868
S'pro5v328'
p869
a(dp870
S'bootloader'
p871
(dp872
S'extended_fuses'
p873
S'0x05'
p874
sS'high_fuses'
p875
S'0xDA'
p876
sS'low_fuses'
p877
S'0xFF'
p878
sS'lock_bits'
p879
S'0x0F'
p880
sS'file'
p881
S'ATmegaBOOT_168_atmega328.hex'
p882
sS'path'
p883
S'atmega'
p884
sS'unlock_bits'
p885
S'0x3F'
p886
ssS'upload'
p887
(dp888
S'speed'
p889
S'57600'
p890
sS'maximum_size'
p891
S'30720'
p892
sS'protocol'
p893
S'arduino'
p894
ssS'name'
p895
S'Arduino Pro or Pro Mini (5V, 16 MHz) w/ ATmega328'
p896
sS'build'
p897
(dp898
S'core'
p899
S'arduino'
p900
sS'mcu'
p901
S'atmega328p'
p902
sS'f_cpu'
p903
S'16000000L'
p904
sS'variant'
p905
S'standard'
p906
ssaa(lp907
S'pro5v'
p908
a(dp909
S'bootloader'
p910
(dp911
S'extended_fuses'
p912
S'0x00'
p913
sS'high_fuses'
p914
S'0xdd'
p915
sS'low_fuses'
p916
S'0xff'
p917
sS'lock_bits'
p918
S'0x0F'
p919
sS'file'
p920
S'ATmegaBOOT_168_diecimila.hex'
p921
sS'path'
p922
S'atmega'
p923
sS'unlock_bits'
p924
S'0x3F'
p925
ssS'upload'
p926
(dp927
S'speed'
p928
S'19200'
p929
sS'maximum_size'
p930
S'14336'
p931
sS'protocol'
p932
S'arduino'
p933
ssS'name'
p934
S'Arduino Pro or Pro Mini (5V, 16 MHz) w/ ATmega168'
p935
sS'build'
p936
(dp937
S'core'
p938
S'arduino'
p939
sS'mcu'
p940
S'atmega168'
p941
sS'f_cpu'
p942
S'16000000L'
p943
sS'variant'
p944
S'standard'
p945
ssaa(lp946
S'pro328'
p947
a(dp948
S'bootloader'
p949
(dp950
S'extended_fuses'
p951
S'0x05'
p952
sS'high_fuses'
p953
S'0xDA'
p954
sS'low_fuses'
p955
S'0xFF'
p956
sS'lock_bits'
p957
S'0x0F'
p958
sS'file'
p959
S'ATmegaBOOT_168_atmega328_pro_8MHz.hex'
p960
sS'path'
p961
S'atmega'
p962
sS'unlock_bits'
p963
S'0x3F'
p964
ssS'upload'
p965
(dp966
S'speed'
p967
S'57600'
p968
sS'maximum_size'
p969
S'30720'
p970
sS'protocol'
p971
S'arduino'
p972
ssS'name'
p973
S'Arduino Pro or Pro Mini (3.3V, 8 MHz) w/ ATmega328'
p974
sS'build'
p975
(dp976
S'core'
p977
S'arduino'
p978
sS'mcu'
p979
S'atmega328p'
p980
sS'f_cpu'
p981
S'8000000L'
p982
sS'variant'
p983
S'standard'
p984
ssaa(lp985
S'pro'
p986
a(dp987
S'bootloader'
p988
(dp989
S'extended_fuses'
p990
S'0x00'
p991
sS'high_fuses'
p992
S'0xdd'
p993
sS'low_fuses'
p994
S'0xc6'
p995
sS'lock_bits'
p996
S'0x0F'
p997
sS'file'
p998
S'ATmegaBOOT_168_pro_8MHz.hex'
p999
sS'path'
p1000
S'atmega'
p1001
sS'unlock_bits'
p1002
S'0x3F'
p1003
ssS'upload'
p1004
(dp1005
S'speed'
p1006
S'19200'
p1007
sS'maximum_size'
p1008
S'14336'
p1009
sS'protocol'
p1010
S'arduino'
p1011
ssS'name'
p1012
S'Arduino Pro or Pro Mini (3.3V, 8 MHz) w/ ATmega168'
p1013
sS'build'
p1014
(dp1015
S'core'
p1016
S'arduino'
p1017
sS'mcu'
p1018
S'atmega168'
p1019
sS'f_cpu'
p1020
S'8000000L'
p1021
sS'variant'
p1022
S'standard'
p1023
ssaa(lp1024
S'atmega168'
p1025
a(dp1026
S'bootloader'
p1027
(dp1028
S'extended_fuses'
p1029
S'0x00'
p1030
sS'high_fuses'
p1031
S'0xdd'
p1032
sS'low_fuses'
p1033
S'0xff'
p1034
sS'lock_bits'
p1035
S'0x0F'
p1036
sS'file'
p1037
S'ATmegaBOOT_168_ng.hex'
p1038
sS'path'
p1039
S'atmega'
p1040
sS'unlock_bits'
p1041
S'0x3F'
p1042
ssS'upload'
p1043
(dp1044
S'speed'
p1045
S'19200'
p1046
sS'maximum_size'
p1047
S'14336'
p1048
sS'protocol'
p1049
S'arduino'
p1050
ssS'name'
p1051
S'Arduino NG or older w/ ATmega168'
p1052
sS'build'
p1053
(dp1054
S'core'
p1055
S'arduino'
p1056
sS'mcu'
p1057
S'atmega168'
p1058
sS'f_cpu'
p1059
S'16000000L'
p1060
sS'variant'
p1061
S'standard'
p1062
ssaa(lp1063
S'atmega8'
p1064
a(dp1065
S'bootloader'
p1066
(dp1067
S'high_fuses'
p1068
S'0xca'
p1069
sS'low_fuses'
p1070
S'0xdf'
p1071
sS'lock_bits'
p1072
S'0x0F'
p1073
sS'file'
p1074
S'ATmegaBOOT-prod-firmware-2009-11-07.hex'
p1075
sS'path'
p1076
S'atmega8'
p1077
sS'unlock_bits'
p1078
S'0x3F'
p1079
ssS'upload'
p1080
(dp1081
S'speed'
p1082
S'19200'
p1083
sS'maximum_size'
p1084
S'7168'
p1085
sS'protocol'
p1086
S'arduino'
p1087
ssS'name'
p1088
S'Arduino NG or older w/ ATmega8'
p1089
sS'build'
p1090
(dp1091
S'core'
p1092
S'arduino'
p1093
sS'mcu'
p1094
S'atmega8'
p1095
sS'f_cpu'
p1096
S'16000000L'
p1097
sS'variant'
p1098
S'standard'
p1099
ssaatp1100
Rp1101
(dp1102
S'default'
p1103
S'uno'
p1104
sbtp1105
a(S'cxx'
p1106
S'/Applications/Arduino.app/Contents/Resources/Java/hardware/tools/avr/bin/avr-g++'
p1107
tp1108
a(S'build_dir'
p1109
S'.build/pro328'
p1110
tp1111
a.